target datalayout = "e-m:e-p270:32:32-p271:32:32-p272:64:64-i64:64-i128:128-f80:128-n8:16:32:64-S128"
target triple = "x86_64-unknown-linux-gnu"

%struct.Row = type { i32, i32 }

; Function Attrs: mustprogress nounwind uwtable
define internal noundef i32 @_ZL16ures_compareRowsPKvS0_S0_(ptr noundef %context, ptr noundef %left, ptr noundef %right) #2 {
entry:
  %context.addr = alloca ptr, align 8
  %left.addr = alloca ptr, align 8
  %right.addr = alloca ptr, align 8
  %keyChars = alloca ptr, align 8
  store ptr %context, ptr %context.addr, align 8
  store ptr %left, ptr %left.addr, align 8
  store ptr %right, ptr %right.addr, align 8
  %0 = load ptr, ptr %context.addr, align 8
  store ptr %0, ptr %keyChars, align 8
  %1 = load ptr, ptr %keyChars, align 8
  %2 = load ptr, ptr %left.addr, align 8
  %keyIndex = getelementptr inbounds %struct.Row, ptr %2, i32 0, i32 0
  %3 = load i32, ptr %keyIndex, align 4
  %idx.ext = sext i32 %3 to i64
  %add.ptr = getelementptr inbounds i8, ptr %1, i64 %idx.ext
  %4 = load ptr, ptr %keyChars, align 8
  %5 = load ptr, ptr %right.addr, align 8
  %keyIndex1 = getelementptr inbounds %struct.Row, ptr %5, i32 0, i32 0
  %6 = load i32, ptr %keyIndex1, align 4
  %idx.ext2 = sext i32 %6 to i64
  %add.ptr3 = getelementptr inbounds i8, ptr %4, i64 %idx.ext2
  %call = call i32 @strcmp(ptr noundef %add.ptr, ptr noundef %add.ptr3) #9
  ret i32 %call
}