; Function Attrs: mustprogress nofree nounwind willreturn memory(argmem: read) uwtable
define internal noundef i32 @_ZL16ures_compareRowsPKvS0_S0_(ptr nocapture noundef readonly %context, ptr nocapture noundef readonly %left, ptr nocapture noundef readonly %right) #16 {
entry:
  %0 = load i32, ptr %left, align 4
  %idx.ext = sext i32 %0 to i64
  %add.ptr = getelementptr inbounds i8, ptr %context, i64 %idx.ext
  %1 = load i32, ptr %right, align 4
  %idx.ext2 = sext i32 %1 to i64
  %add.ptr3 = getelementptr inbounds i8, ptr %context, i64 %idx.ext2
  %call = tail call i32 @strcmp(ptr noundef nonnull dereferenceable(1) %add.ptr, ptr noundef nonnull dereferenceable(1) %add.ptr3) #18
  ret i32 %call
}